target datalayout = "e-m:e-p270:32:32-p271:32:32-p272:64:64-i64:64-i128:128-f80:128-n8:16:32:64-S128"
target triple = "x86_64-unknown-linux-gnu"

; Function Attrs: mustprogress uwtable
define void @_ZN5arrow7compute16ExecBatchBuilder11CollectBitsEPKhlPhliPKt(ptr noundef %input_bits, i64 noundef %input_bits_offset, ptr noundef %output_bits, i64 noundef %output_bits_offset, i32 noundef %num_rows, ptr noundef %row_ids) #2 align 2 {
entry:
  %input_bits.addr = alloca ptr, align 8
  %input_bits_offset.addr = alloca i64, align 8
  %output_bits.addr = alloca ptr, align 8
  %output_bits_offset.addr = alloca i64, align 8
  %num_rows.addr = alloca i32, align 4
  %row_ids.addr = alloca ptr, align 8
  store ptr %input_bits, ptr %input_bits.addr, align 8
  store i64 %input_bits_offset, ptr %input_bits_offset.addr, align 8
  store ptr %output_bits, ptr %output_bits.addr, align 8
  store i64 %output_bits_offset, ptr %output_bits_offset.addr, align 8
  store i32 %num_rows, ptr %num_rows.addr, align 4
  store ptr %row_ids, ptr %row_ids.addr, align 8
  %0 = load i64, ptr %output_bits_offset.addr, align 8
  %rem = srem i64 %0, 8
  %cmp = icmp sgt i64 %rem, 0
  br i1 %cmp, label %if.then, label %if.else

if.then:                                          ; preds = %entry
  %1 = load ptr, ptr %input_bits.addr, align 8
  %2 = load i64, ptr %input_bits_offset.addr, align 8
  %3 = load ptr, ptr %output_bits.addr, align 8
  %4 = load i64, ptr %output_bits_offset.addr, align 8
  %5 = load i32, ptr %num_rows.addr, align 4
  %6 = load ptr, ptr %row_ids.addr, align 8
  call void @_ZN5arrow7compute16ExecBatchBuilder14CollectBitsImpILb0EEEvPKhlPhliPKt(ptr noundef %1, i64 noundef %2, ptr noundef %3, i64 noundef %4, i32 noundef %5, ptr noundef %6)
  br label %if.end

if.else:                                          ; preds = %entry
  %7 = load ptr, ptr %input_bits.addr, align 8
  %8 = load i64, ptr %input_bits_offset.addr, align 8
  %9 = load ptr, ptr %output_bits.addr, align 8
  %10 = load i64, ptr %output_bits_offset.addr, align 8
  %11 = load i32, ptr %num_rows.addr, align 4
  %12 = load ptr, ptr %row_ids.addr, align 8
  call void @_ZN5arrow7compute16ExecBatchBuilder14CollectBitsImpILb1EEEvPKhlPhliPKt(ptr noundef %7, i64 noundef %8, ptr noundef %9, i64 noundef %10, i32 noundef %11, ptr noundef %12)
  br label %if.end

if.end:                                           ; preds = %if.else, %if.then
  ret void
}