; Function Attrs: mustprogress uwtable
define void @_ZN5arrow7compute16ExecBatchBuilder11CollectBitsEPKhlPhliPKt(ptr noundef %input_bits, i64 noundef %input_bits_offset, ptr noundef %output_bits, i64 noundef %output_bits_offset, i32 noundef %num_rows, ptr noundef %row_ids) local_unnamed_addr #2 align 2 {
entry:
  %0 = and i64 %output_bits_offset, -9223372036854775801
  %cmp = icmp sgt i64 %0, 0
  br i1 %cmp, label %if.then, label %if.else

if.then:                                          ; preds = %entry
  tail call void @_ZN5arrow7compute16ExecBatchBuilder14CollectBitsImpILb0EEEvPKhlPhliPKt(ptr noundef %input_bits, i64 noundef %input_bits_offset, ptr noundef %output_bits, i64 noundef %output_bits_offset, i32 noundef %num_rows, ptr noundef %row_ids)
  br label %if.end

if.else:                                          ; preds = %entry
  tail call void @_ZN5arrow7compute16ExecBatchBuilder14CollectBitsImpILb1EEEvPKhlPhliPKt(ptr noundef %input_bits, i64 noundef %input_bits_offset, ptr noundef %output_bits, i64 noundef %output_bits_offset, i32 noundef %num_rows, ptr noundef %row_ids)
  br label %if.end

if.end:                                           ; preds = %if.else, %if.then
  ret void
}